target datalayout = "e-m:e-p270:32:32-p271:32:32-p272:64:64-i64:64-i128:128-f80:128-n8:16:32:64-S128"
target triple = "x86_64-pc-linux-gnu"

%struct.sp_int = type { i16, i16, [129 x i64] }

; Function Attrs: nounwind uwtable
define i32 @sp_cond_swap_ct_ex(ptr noundef %0, ptr noundef %1, i32 noundef %2, i32 noundef %3, ptr noundef %4) #0 {
  %6 = alloca ptr, align 8
  %7 = alloca ptr, align 8
  %8 = alloca i32, align 4
  %9 = alloca i32, align 4
  %10 = alloca ptr, align 8
  %11 = alloca i32, align 4
  %12 = alloca i64, align 8
  store ptr %0, ptr %6, align 8, !tbaa !3
  store ptr %1, ptr %7, align 8, !tbaa !3
  store i32 %2, ptr %8, align 4, !tbaa !8
  store i32 %3, ptr %9, align 4, !tbaa !8
  store ptr %4, ptr %10, align 8, !tbaa !3
  call void @llvm.lifetime.start.p0(i64 4, ptr %11) #8
  call void @llvm.lifetime.start.p0(i64 8, ptr %12) #8
  %13 = load i32, ptr %9, align 4, !tbaa !8
  %14 = sext i32 %13 to i64
  %15 = sub i64 0, %14
  store i64 %15, ptr %12, align 8, !tbaa !16
  %16 = load ptr, ptr %6, align 8, !tbaa !3
  %17 = getelementptr inbounds nuw %struct.sp_int, ptr %16, i32 0, i32 0
  %18 = load i16, ptr %17, align 8, !tbaa !15
  %19 = zext i16 %18 to i32
  %20 = load ptr, ptr %7, align 8, !tbaa !3
  %21 = getelementptr inbounds nuw %struct.sp_int, ptr %20, i32 0, i32 0
  %22 = load i16, ptr %21, align 8, !tbaa !15
  %23 = zext i16 %22 to i32
  %24 = xor i32 %19, %23
  %25 = load i64, ptr %12, align 8, !tbaa !16
  %26 = trunc i64 %25 to i16
  %27 = zext i16 %26 to i32
  %28 = and i32 %24, %27
  %29 = trunc i32 %28 to i16
  %30 = load ptr, ptr %10, align 8, !tbaa !3
  %31 = getelementptr inbounds nuw %struct.sp_int, ptr %30, i32 0, i32 0
  store i16 %29, ptr %31, align 8, !tbaa !15
  store i32 0, ptr %11, align 4, !tbaa !8
  br label %32

32:                                               ; preds = %57, %5
  %33 = load i32, ptr %11, align 4, !tbaa !8
  %34 = load i32, ptr %8, align 4, !tbaa !8
  %35 = icmp ult i32 %33, %34
  br i1 %35, label %36, label %60

36:                                               ; preds = %32
  %37 = load ptr, ptr %6, align 8, !tbaa !3
  %38 = getelementptr inbounds nuw %struct.sp_int, ptr %37, i32 0, i32 2
  %39 = load i32, ptr %11, align 4, !tbaa !8
  %40 = zext i32 %39 to i64
  %41 = getelementptr inbounds nuw [129 x i64], ptr %38, i64 0, i64 %40
  %42 = load i64, ptr %41, align 8, !tbaa !16
  %43 = load ptr, ptr %7, align 8, !tbaa !3
  %44 = getelementptr inbounds nuw %struct.sp_int, ptr %43, i32 0, i32 2
  %45 = load i32, ptr %11, align 4, !tbaa !8
  %46 = zext i32 %45 to i64
  %47 = getelementptr inbounds nuw [129 x i64], ptr %44, i64 0, i64 %46
  %48 = load i64, ptr %47, align 8, !tbaa !16
  %49 = xor i64 %42, %48
  %50 = load i64, ptr %12, align 8, !tbaa !16
  %51 = and i64 %49, %50
  %52 = load ptr, ptr %10, align 8, !tbaa !3
  %53 = getelementptr inbounds nuw %struct.sp_int, ptr %52, i32 0, i32 2
  %54 = load i32, ptr %11, align 4, !tbaa !8
  %55 = zext i32 %54 to i64
  %56 = getelementptr inbounds nuw [129 x i64], ptr %53, i64 0, i64 %55
  store i64 %51, ptr %56, align 8, !tbaa !16
  br label %57

57:                                               ; preds = %36
  %58 = load i32, ptr %11, align 4, !tbaa !8
  %59 = add i32 %58, 1
  store i32 %59, ptr %11, align 4, !tbaa !8
  br label %32, !llvm.loop !33

60:                                               ; preds = %32
  %61 = load ptr, ptr %10, align 8, !tbaa !3
  %62 = getelementptr inbounds nuw %struct.sp_int, ptr %61, i32 0, i32 0
  %63 = load i16, ptr %62, align 8, !tbaa !15
  %64 = zext i16 %63 to i32
  %65 = load ptr, ptr %6, align 8, !tbaa !3
  %66 = getelementptr inbounds nuw %struct.sp_int, ptr %65, i32 0, i32 0
  %67 = load i16, ptr %66, align 8, !tbaa !15
  %68 = zext i16 %67 to i32
  %69 = xor i32 %68, %64
  %70 = trunc i32 %69 to i16
  store i16 %70, ptr %66, align 8, !tbaa !15
  store i32 0, ptr %11, align 4, !tbaa !8
  br label %71

71:                                               ; preds = %89, %60
  %72 = load i32, ptr %11, align 4, !tbaa !8
  %73 = load i32, ptr %8, align 4, !tbaa !8
  %74 = icmp ult i32 %72, %73
  br i1 %74, label %75, label %92

75:                                               ; preds = %71
  %76 = load ptr, ptr %10, align 8, !tbaa !3
  %77 = getelementptr inbounds nuw %struct.sp_int, ptr %76, i32 0, i32 2
  %78 = load i32, ptr %11, align 4, !tbaa !8
  %79 = zext i32 %78 to i64
  %80 = getelementptr inbounds nuw [129 x i64], ptr %77, i64 0, i64 %79
  %81 = load i64, ptr %80, align 8, !tbaa !16
  %82 = load ptr, ptr %6, align 8, !tbaa !3
  %83 = getelementptr inbounds nuw %struct.sp_int, ptr %82, i32 0, i32 2
  %84 = load i32, ptr %11, align 4, !tbaa !8
  %85 = zext i32 %84 to i64
  %86 = getelementptr inbounds nuw [129 x i64], ptr %83, i64 0, i64 %85
  %87 = load i64, ptr %86, align 8, !tbaa !16
  %88 = xor i64 %87, %81
  store i64 %88, ptr %86, align 8, !tbaa !16
  br label %89

89:                                               ; preds = %75
  %90 = load i32, ptr %11, align 4, !tbaa !8
  %91 = add i32 %90, 1
  store i32 %91, ptr %11, align 4, !tbaa !8
  br label %71, !llvm.loop !34

92:                                               ; preds = %71
  %93 = load ptr, ptr %10, align 8, !tbaa !3
  %94 = getelementptr inbounds nuw %struct.sp_int, ptr %93, i32 0, i32 0
  %95 = load i16, ptr %94, align 8, !tbaa !15
  %96 = zext i16 %95 to i32
  %97 = load ptr, ptr %7, align 8, !tbaa !3
  %98 = getelementptr inbounds nuw %struct.sp_int, ptr %97, i32 0, i32 0
  %99 = load i16, ptr %98, align 8, !tbaa !15
  %100 = zext i16 %99 to i32
  %101 = xor i32 %100, %96
  %102 = trunc i32 %101 to i16
  store i16 %102, ptr %98, align 8, !tbaa !15
  store i32 0, ptr %11, align 4, !tbaa !8
  br label %103

103:                                              ; preds = %121, %92
  %104 = load i32, ptr %11, align 4, !tbaa !8
  %105 = load i32, ptr %8, align 4, !tbaa !8
  %106 = icmp ult i32 %104, %105
  br i1 %106, label %107, label %124

107:                                              ; preds = %103
  %108 = load ptr, ptr %10, align 8, !tbaa !3
  %109 = getelementptr inbounds nuw %struct.sp_int, ptr %108, i32 0, i32 2
  %110 = load i32, ptr %11, align 4, !tbaa !8
  %111 = zext i32 %110 to i64
  %112 = getelementptr inbounds nuw [129 x i64], ptr %109, i64 0, i64 %111
  %113 = load i64, ptr %112, align 8, !tbaa !16
  %114 = load ptr, ptr %7, align 8, !tbaa !3
  %115 = getelementptr inbounds nuw %struct.sp_int, ptr %114, i32 0, i32 2
  %116 = load i32, ptr %11, align 4, !tbaa !8
  %117 = zext i32 %116 to i64
  %118 = getelementptr inbounds nuw [129 x i64], ptr %115, i64 0, i64 %117
  %119 = load i64, ptr %118, align 8, !tbaa !16
  %120 = xor i64 %119, %113
  store i64 %120, ptr %118, align 8, !tbaa !16
  br label %121

121:                                              ; preds = %107
  %122 = load i32, ptr %11, align 4, !tbaa !8
  %123 = add i32 %122, 1
  store i32 %123, ptr %11, align 4, !tbaa !8
  br label %103, !llvm.loop !35

124:                                              ; preds = %103
  call void @llvm.lifetime.end.p0(i64 8, ptr %12) #8
  call void @llvm.lifetime.end.p0(i64 4, ptr %11) #8
  ret i32 0
}