; Function Attrs: nofree norecurse nosync nounwind memory(argmem: readwrite) uwtable
define noundef i32 @sp_cond_swap_ct_ex(ptr noundef captures(none) %0, ptr noundef captures(none) %1, i32 noundef %2, i32 noundef %3, ptr noundef captures(none) initializes((0, 2)) %4) local_unnamed_addr #8 {
  %6 = sext i32 %3 to i64
  %7 = sub nsw i64 0, %6
  %8 = load i16, ptr %0, align 8, !tbaa !12
  %9 = load i16, ptr %1, align 8, !tbaa !12
  %10 = xor i16 %9, %8
  %11 = trunc i64 %7 to i16
  %12 = and i16 %10, %11
  store i16 %12, ptr %4, align 8, !tbaa !12
  %.not = icmp eq i32 %2, 0
  br i1 %.not, label %._crit_edge.thread, label %.lr.ph

._crit_edge.thread:                               ; preds = %5
  %13 = load i16, ptr %0, align 8, !tbaa !12
  %14 = xor i16 %13, %12
  store i16 %14, ptr %0, align 8, !tbaa !12
  %15 = load i16, ptr %4, align 8, !tbaa !12
  %16 = load i16, ptr %1, align 8, !tbaa !12
  %17 = xor i16 %16, %15
  store i16 %17, ptr %1, align 8, !tbaa !12
  br label %._crit_edge41

.lr.ph:                                           ; preds = %5
  %18 = getelementptr inbounds nuw i8, ptr %0, i64 8
  %19 = getelementptr inbounds nuw i8, ptr %1, i64 8
  %20 = getelementptr inbounds nuw i8, ptr %4, i64 8
  %wide.trip.count = zext i32 %2 to i64
  br label %21

21:                                               ; preds = %.lr.ph, %21
  %indvars.iv = phi i64 [ 0, %.lr.ph ], [ %indvars.iv.next, %21 ]
  %22 = getelementptr inbounds nuw [129 x i64], ptr %18, i64 0, i64 %indvars.iv
  %23 = load i64, ptr %22, align 8, !tbaa !8
  %24 = getelementptr inbounds nuw [129 x i64], ptr %19, i64 0, i64 %indvars.iv
  %25 = load i64, ptr %24, align 8, !tbaa !8
  %26 = xor i64 %25, %23
  %27 = and i64 %26, %7
  %28 = getelementptr inbounds nuw [129 x i64], ptr %20, i64 0, i64 %indvars.iv
  store i64 %27, ptr %28, align 8, !tbaa !8
  %indvars.iv.next = add nuw nsw i64 %indvars.iv, 1
  %exitcond.not = icmp eq i64 %indvars.iv.next, %wide.trip.count
  br i1 %exitcond.not, label %._crit_edge, label %21, !llvm.loop !18

._crit_edge:                                      ; preds = %21
  %29 = load i16, ptr %0, align 8, !tbaa !12
  %30 = xor i16 %29, %12
  store i16 %30, ptr %0, align 8, !tbaa !12
  %31 = getelementptr inbounds nuw i8, ptr %4, i64 8
  %32 = getelementptr inbounds nuw i8, ptr %0, i64 8
  %wide.trip.count48 = zext i32 %2 to i64
  br label %33

33:                                               ; preds = %._crit_edge, %33
  %indvars.iv45 = phi i64 [ 0, %._crit_edge ], [ %indvars.iv.next46, %33 ]
  %34 = getelementptr inbounds nuw [129 x i64], ptr %31, i64 0, i64 %indvars.iv45
  %35 = load i64, ptr %34, align 8, !tbaa !8
  %36 = getelementptr inbounds nuw [129 x i64], ptr %32, i64 0, i64 %indvars.iv45
  %37 = load i64, ptr %36, align 8, !tbaa !8
  %38 = xor i64 %37, %35
  store i64 %38, ptr %36, align 8, !tbaa !8
  %indvars.iv.next46 = add nuw nsw i64 %indvars.iv45, 1
  %exitcond49.not = icmp eq i64 %indvars.iv.next46, %wide.trip.count48
  br i1 %exitcond49.not, label %._crit_edge37, label %33, !llvm.loop !19

._crit_edge37:                                    ; preds = %33
  %39 = load i16, ptr %4, align 8, !tbaa !12
  %40 = load i16, ptr %1, align 8, !tbaa !12
  %41 = xor i16 %40, %39
  store i16 %41, ptr %1, align 8, !tbaa !12
  %42 = getelementptr inbounds nuw i8, ptr %4, i64 8
  %43 = getelementptr inbounds nuw i8, ptr %1, i64 8
  %wide.trip.count53 = zext i32 %2 to i64
  br label %44

44:                                               ; preds = %._crit_edge37, %44
  %indvars.iv50 = phi i64 [ 0, %._crit_edge37 ], [ %indvars.iv.next51, %44 ]
  %45 = getelementptr inbounds nuw [129 x i64], ptr %42, i64 0, i64 %indvars.iv50
  %46 = load i64, ptr %45, align 8, !tbaa !8
  %47 = getelementptr inbounds nuw [129 x i64], ptr %43, i64 0, i64 %indvars.iv50
  %48 = load i64, ptr %47, align 8, !tbaa !8
  %49 = xor i64 %48, %46
  store i64 %49, ptr %47, align 8, !tbaa !8
  %indvars.iv.next51 = add nuw nsw i64 %indvars.iv50, 1
  %exitcond54.not = icmp eq i64 %indvars.iv.next51, %wide.trip.count53
  br i1 %exitcond54.not, label %._crit_edge41, label %44, !llvm.loop !20

._crit_edge41:                                    ; preds = %44, %._crit_edge.thread
  ret i32 0
}